target datalayout = "e-m:e-p270:32:32-p271:32:32-p272:64:64-i64:64-i128:128-f80:128-n8:16:32:64-S128"
target triple = "x86_64-pc-linux-gnu"

%class.ExpertPacketItem = type { ptr, i32, i32, i32, i32, %class.QByteArray, %class.QByteArray, %class.QByteArray, %class.QList, ptr, %class.QHash }
%class.QByteArray = type { %struct.QArrayDataPointer }
%struct.QArrayDataPointer = type { ptr, ptr, i64 }
%class.QList = type { %struct.QArrayDataPointer.0 }
%struct.QArrayDataPointer.0 = type { ptr, ptr, i64 }
%class.QHash = type { ptr }
%class.ExpertInfoModel = type { %class.QAbstractItemModel, ptr, i8, ptr, %class.QHash.2 }
%class.QAbstractItemModel = type { %class.QObject }
%class.QObject = type { ptr, %class.QScopedPointer }
%class.QScopedPointer = type { ptr }
%class.QHash.2 = type { ptr }
%class.QModelIndex = type { i32, i32, i64, ptr }

; Function Attrs: mustprogress nounwind null_pointer_is_valid sspstrong uwtable
define linkonce_odr noundef ptr @_ZNK17QArrayDataPointerIP16ExpertPacketItemE4dataEv(ptr noundef align 8 dereferenceable_or_null(24) %0) #3 comdat align 2 {
  %2 = alloca ptr, align 8
  store ptr %0, ptr %2, align 8
  %3 = load ptr, ptr %2, align 8
  %4 = getelementptr inbounds nuw %struct.QArrayDataPointer.0, ptr %3, i32 0, i32 1
  %5 = load ptr, ptr %4, align 8
  ret ptr %5
}

; Function Attrs: mustprogress nounwind null_pointer_is_valid sspstrong uwtable
define linkonce_odr noundef ptr @_ZNK5QListIP16ExpertPacketItemE4dataEv(ptr noundef align 8 dereferenceable_or_null(24) %0) #3 comdat align 2 {
  %2 = alloca ptr, align 8
  store ptr %0, ptr %2, align 8
  %3 = load ptr, ptr %2, align 8
  %4 = getelementptr inbounds nuw %class.QList, ptr %3, i32 0, i32 0
  %5 = call noundef ptr @_ZNK17QArrayDataPointerIP16ExpertPacketItemEptEv(ptr noundef align 8 dereferenceable_or_null(24) %4) #10
  %6 = call noundef ptr @_ZNK17QArrayDataPointerIP16ExpertPacketItemE4dataEv(ptr noundef align 8 dereferenceable_or_null(24) %5) #10
  ret ptr %6
}

; Function Attrs: mustprogress nounwind null_pointer_is_valid sspstrong uwtable
define linkonce_odr noundef align 8 dereferenceable(8) ptr @_ZNK5QListIP16ExpertPacketItemE2atEx(ptr noundef align 8 dereferenceable_or_null(24) %0, i64 noundef %1) #3 comdat align 2 {
  %3 = alloca ptr, align 8
  %4 = alloca i64, align 8
  store ptr %0, ptr %3, align 8
  store i64 %1, ptr %4, align 8
  %5 = load ptr, ptr %3, align 8
  %6 = call noundef ptr @_ZNK5QListIP16ExpertPacketItemE4dataEv(ptr noundef align 8 dereferenceable_or_null(24) %5) #10
  %7 = load i64, ptr %4, align 8
  %8 = getelementptr ptr, ptr %6, i64 %7
  ret ptr %8
}

; Function Attrs: mustprogress nounwind null_pointer_is_valid sspstrong uwtable
define linkonce_odr noundef ptr @_ZNK17QArrayDataPointerIP16ExpertPacketItemEptEv(ptr noundef align 8 dereferenceable_or_null(24) %0) #3 comdat align 2 {
  %2 = alloca ptr, align 8
  store ptr %0, ptr %2, align 8
  %3 = load ptr, ptr %2, align 8
  ret ptr %3
}

; Function Attrs: inlinehint mustprogress nounwind null_pointer_is_valid sspstrong uwtable
define linkonce_odr noundef ptr @_ZNK5QListIP16ExpertPacketItemE5valueExS1_(ptr noundef align 8 dereferenceable_or_null(24) %0, i64 noundef %1, ptr noundef %2) #2 comdat align 2 {
  %4 = alloca ptr, align 8
  %5 = alloca i64, align 8
  %6 = alloca ptr, align 8
  store ptr %0, ptr %4, align 8
  store i64 %1, ptr %5, align 8
  store ptr %2, ptr %6, align 8
  %7 = load ptr, ptr %4, align 8
  %8 = load i64, ptr %5, align 8
  %9 = getelementptr inbounds nuw %class.QList, ptr %7, i32 0, i32 0
  %10 = call noundef ptr @_ZNK17QArrayDataPointerIP16ExpertPacketItemEptEv(ptr noundef align 8 dereferenceable_or_null(24) %9) #10
  %11 = getelementptr inbounds nuw %struct.QArrayDataPointer.0, ptr %10, i32 0, i32 2
  %12 = load i64, ptr %11, align 8
  %13 = icmp ult i64 %8, %12
  br i1 %13, label %14, label %18

14:                                               ; preds = %3
  %15 = load i64, ptr %5, align 8
  %16 = call noundef align 8 dereferenceable(8) ptr @_ZNK5QListIP16ExpertPacketItemE2atEx(ptr noundef align 8 dereferenceable_or_null(24) %7, i64 noundef %15) #10
  %17 = load ptr, ptr %16, align 8
  br label %20

18:                                               ; preds = %3
  %19 = load ptr, ptr %6, align 8
  br label %20

20:                                               ; preds = %18, %14
  %21 = phi ptr [ %17, %14 ], [ %19, %18 ]
  ret ptr %21
}

; Function Attrs: mustprogress nounwind null_pointer_is_valid sspstrong uwtable
define linkonce_odr noundef i64 @_ZNK5QListIP16ExpertPacketItemE4sizeEv(ptr noundef align 8 dereferenceable_or_null(24) %0) #3 comdat align 2 {
  %2 = alloca ptr, align 8
  store ptr %0, ptr %2, align 8
  %3 = load ptr, ptr %2, align 8
  %4 = getelementptr inbounds nuw %class.QList, ptr %3, i32 0, i32 0
  %5 = call noundef ptr @_ZNK17QArrayDataPointerIP16ExpertPacketItemEptEv(ptr noundef align 8 dereferenceable_or_null(24) %4) #10
  %6 = getelementptr inbounds nuw %struct.QArrayDataPointer.0, ptr %5, i32 0, i32 2
  %7 = load i64, ptr %6, align 8
  ret i64 %7
}

; Function Attrs: mustprogress null_pointer_is_valid sspstrong uwtable
define linkonce_odr noundef ptr @_ZNK5QListIP16ExpertPacketItemE5valueEx(ptr noundef align 8 dereferenceable_or_null(24) %0, i64 noundef %1) #0 comdat align 2 {
  %3 = alloca ptr, align 8
  %4 = alloca i64, align 8
  store ptr %0, ptr %3, align 8
  store i64 %1, ptr %4, align 8
  %5 = load ptr, ptr %3, align 8
  %6 = load i64, ptr %4, align 8
  %7 = call noundef ptr @_ZNK5QListIP16ExpertPacketItemE5valueExS1_(ptr noundef align 8 dereferenceable_or_null(24) %5, i64 noundef %6, ptr noundef null)
  ret ptr %7
}

; Function Attrs: mustprogress nounwind null_pointer_is_valid sspstrong uwtable
define linkonce_odr noundef i64 @_ZNK5QListIP16ExpertPacketItemE5countEv(ptr noundef align 8 dereferenceable_or_null(24) %0) #3 comdat align 2 {
  %2 = alloca ptr, align 8
  store ptr %0, ptr %2, align 8
  %3 = load ptr, ptr %2, align 8
  %4 = call noundef i64 @_ZNK5QListIP16ExpertPacketItemE4sizeEv(ptr noundef align 8 dereferenceable_or_null(24) %3) #10
  ret i64 %4
}

; Function Attrs: mustprogress nounwind null_pointer_is_valid sspstrong uwtable
define noundef ptr @_ZN16ExpertPacketItem10parentItemEv(ptr noundef align 8 dereferenceable_or_null(136) %0) #3 align 2 {
  %2 = alloca ptr, align 8
  store ptr %0, ptr %2, align 8
  %3 = load ptr, ptr %2, align 8
  %4 = getelementptr inbounds nuw %class.ExpertPacketItem, ptr %3, i32 0, i32 9
  %5 = load ptr, ptr %4, align 8
  ret ptr %5
}

; Function Attrs: mustprogress null_pointer_is_valid sspstrong uwtable
define noundef ptr @_ZN16ExpertPacketItem5childEi(ptr noundef align 8 dereferenceable_or_null(136) %0, i32 noundef %1) #0 align 2 {
  %3 = alloca ptr, align 8
  %4 = alloca i32, align 4
  store ptr %0, ptr %3, align 8
  store i32 %1, ptr %4, align 4
  %5 = load ptr, ptr %3, align 8
  %6 = getelementptr inbounds nuw %class.ExpertPacketItem, ptr %5, i32 0, i32 8
  %7 = load i32, ptr %4, align 4
  %8 = sext i32 %7 to i64
  %9 = call noundef ptr @_ZNK5QListIP16ExpertPacketItemE5valueEx(ptr noundef align 8 dereferenceable_or_null(24) %6, i64 noundef %8)
  ret ptr %9
}

; Function Attrs: mustprogress nounwind null_pointer_is_valid sspstrong uwtable
define noundef i32 @_ZNK16ExpertPacketItem10childCountEv(ptr noundef align 8 dereferenceable_or_null(136) %0) #3 align 2 {
  %2 = alloca ptr, align 8
  store ptr %0, ptr %2, align 8
  %3 = load ptr, ptr %2, align 8
  %4 = getelementptr inbounds nuw %class.ExpertPacketItem, ptr %3, i32 0, i32 8
  %5 = call noundef i64 @_ZNK5QListIP16ExpertPacketItemE5countEv(ptr noundef align 8 dereferenceable_or_null(24) %4) #10
  %6 = trunc i64 %5 to i32
  ret i32 %6
}

; Function Attrs: inlinehint mustprogress nounwind null_pointer_is_valid sspstrong uwtable
define linkonce_odr noundef ptr @_ZNK11QModelIndex15internalPointerEv(ptr noundef align 8 dereferenceable_or_null(24) %0) #2 comdat align 2 {
  %2 = alloca ptr, align 8
  store ptr %0, ptr %2, align 8
  %3 = load ptr, ptr %2, align 8
  %4 = getelementptr inbounds nuw %class.QModelIndex, ptr %3, i32 0, i32 2
  %5 = load i64, ptr %4, align 8
  %6 = inttoptr i64 %5 to ptr
  ret ptr %6
}

; Function Attrs: inlinehint mustprogress nounwind null_pointer_is_valid sspstrong uwtable
define linkonce_odr noundef zeroext i1 @_ZNK11QModelIndex7isValidEv(ptr noundef align 8 dereferenceable_or_null(24) %0) #2 comdat align 2 {
  %2 = alloca ptr, align 8
  store ptr %0, ptr %2, align 8
  %3 = load ptr, ptr %2, align 8
  %4 = getelementptr inbounds nuw %class.QModelIndex, ptr %3, i32 0, i32 0
  %5 = load i32, ptr %4, align 8
  %6 = icmp sge i32 %5, 0
  br i1 %6, label %7, label %15

7:                                                ; preds = %1
  %8 = getelementptr inbounds nuw %class.QModelIndex, ptr %3, i32 0, i32 1
  %9 = load i32, ptr %8, align 4
  %10 = icmp sge i32 %9, 0
  br i1 %10, label %11, label %15

11:                                               ; preds = %7
  %12 = getelementptr inbounds nuw %class.QModelIndex, ptr %3, i32 0, i32 3
  %13 = load ptr, ptr %12, align 8
  %14 = icmp ne ptr %13, null
  br label %15

15:                                               ; preds = %11, %7, %1
  %16 = phi i1 [ false, %7 ], [ false, %1 ], [ %14, %11 ]
  ret i1 %16
}

; Function Attrs: inlinehint mustprogress nounwind null_pointer_is_valid sspstrong uwtable
define linkonce_odr noundef i32 @_ZNK11QModelIndex6columnEv(ptr noundef align 8 dereferenceable_or_null(24) %0) #2 comdat align 2 {
  %2 = alloca ptr, align 8
  store ptr %0, ptr %2, align 8
  %3 = load ptr, ptr %2, align 8
  %4 = getelementptr inbounds nuw %class.QModelIndex, ptr %3, i32 0, i32 1
  %5 = load i32, ptr %4, align 4
  ret i32 %5
}

; Function Attrs: mustprogress null_pointer_is_valid sspstrong uwtable
define noundef i32 @_ZNK15ExpertInfoModel8rowCountERK11QModelIndex(ptr noundef align 8 dereferenceable_or_null(48) %0, ptr noundef align 8 dereferenceable(24) %1) unnamed_addr #0 align 2 {
  %3 = alloca i32, align 4
  %4 = alloca ptr, align 8
  %5 = alloca ptr, align 8
  %6 = alloca ptr, align 8
  %7 = alloca i32, align 4
  %8 = alloca i32, align 4
  %9 = alloca ptr, align 8
  %10 = alloca ptr, align 8
  %11 = alloca i32, align 4
  store ptr %0, ptr %4, align 8
  store ptr %1, ptr %5, align 8
  %12 = load ptr, ptr %4, align 8
  call void @llvm.lifetime.start.p0(i64 8, ptr %6) #10
  %13 = load ptr, ptr %5, align 8
  %14 = call noundef i32 @_ZNK11QModelIndex6columnEv(ptr noundef align 8 dereferenceable_or_null(24) %13) #10
  %15 = icmp sgt i32 %14, 0
  br i1 %15, label %16, label %17

16:                                               ; preds = %2
  store i32 0, ptr %3, align 4
  store i32 1, ptr %7, align 4
  br label %77

17:                                               ; preds = %2
  %18 = load ptr, ptr %5, align 8
  %19 = call noundef zeroext i1 @_ZNK11QModelIndex7isValidEv(ptr noundef align 8 dereferenceable_or_null(24) %18) #10
  br i1 %19, label %23, label %20

20:                                               ; preds = %17
  %21 = getelementptr inbounds nuw %class.ExpertInfoModel, ptr %12, i32 0, i32 3
  %22 = load ptr, ptr %21, align 8
  store ptr %22, ptr %6, align 8
  br label %26

23:                                               ; preds = %17
  %24 = load ptr, ptr %5, align 8
  %25 = call noundef ptr @_ZNK11QModelIndex15internalPointerEv(ptr noundef align 8 dereferenceable_or_null(24) %24) #10
  store ptr %25, ptr %6, align 8
  br label %26

26:                                               ; preds = %23, %20
  %27 = getelementptr inbounds nuw %class.ExpertInfoModel, ptr %12, i32 0, i32 2
  %28 = load i8, ptr %27, align 8, !range !8, !noundef !9
  %29 = trunc i8 %28 to i1
  br i1 %29, label %30, label %61

30:                                               ; preds = %26
  call void @llvm.lifetime.start.p0(i64 4, ptr %8) #10
  store i32 0, ptr %8, align 4
  %31 = load ptr, ptr %6, align 8
  %32 = getelementptr inbounds nuw %class.ExpertInfoModel, ptr %12, i32 0, i32 3
  %33 = load ptr, ptr %32, align 8
  %34 = icmp eq ptr %31, %33
  br i1 %34, label %35, label %57

35:                                               ; preds = %30
  call void @llvm.lifetime.start.p0(i64 8, ptr %9) #10
  call void @llvm.lifetime.start.p0(i64 8, ptr %10) #10
  call void @llvm.lifetime.start.p0(i64 4, ptr %11) #10
  store i32 0, ptr %11, align 4
  br label %36

36:                                               ; preds = %52, %35
  %37 = load i32, ptr %11, align 4
  %38 = load ptr, ptr %6, align 8
  %39 = call noundef i32 @_ZNK16ExpertPacketItem10childCountEv(ptr noundef align 8 dereferenceable_or_null(136) %38)
  %40 = icmp slt i32 %37, %39
  br i1 %40, label %42, label %41

41:                                               ; preds = %36
  store i32 2, ptr %7, align 4
  call void @llvm.lifetime.end.p0(i64 4, ptr %11) #10
  br label %55

42:                                               ; preds = %36
  %43 = load ptr, ptr %6, align 8
  %44 = load i32, ptr %11, align 4
  %45 = call noundef ptr @_ZN16ExpertPacketItem5childEi(ptr noundef align 8 dereferenceable_or_null(136) %43, i32 noundef %44)
  store ptr %45, ptr %9, align 8
  %46 = load ptr, ptr %9, align 8
  %47 = call noundef ptr @_ZN16ExpertPacketItem5childEi(ptr noundef align 8 dereferenceable_or_null(136) %46, i32 noundef 0)
  store ptr %47, ptr %10, align 8
  %48 = load ptr, ptr %10, align 8
  %49 = call noundef i32 @_ZNK16ExpertPacketItem10childCountEv(ptr noundef align 8 dereferenceable_or_null(136) %48)
  %50 = load i32, ptr %8, align 4
  %51 = add i32 %50, %49
  store i32 %51, ptr %8, align 4
  br label %52

52:                                               ; preds = %42
  %53 = load i32, ptr %11, align 4
  %54 = add i32 %53, 1
  store i32 %54, ptr %11, align 4
  br label %36, !llvm.loop !14

55:                                               ; preds = %41
  %56 = load i32, ptr %8, align 4
  store i32 %56, ptr %3, align 4
  store i32 1, ptr %7, align 4
  call void @llvm.lifetime.end.p0(i64 8, ptr %10) #10
  call void @llvm.lifetime.end.p0(i64 8, ptr %9) #10
  br label %60

57:                                               ; preds = %30
  %58 = load ptr, ptr %6, align 8
  %59 = call noundef i32 @_ZNK16ExpertPacketItem10childCountEv(ptr noundef align 8 dereferenceable_or_null(136) %58)
  store i32 %59, ptr %3, align 4
  store i32 1, ptr %7, align 4
  br label %60

60:                                               ; preds = %57, %55
  call void @llvm.lifetime.end.p0(i64 4, ptr %8) #10
  br label %77

61:                                               ; preds = %26
  %62 = load ptr, ptr %6, align 8
  %63 = getelementptr inbounds nuw %class.ExpertInfoModel, ptr %12, i32 0, i32 3
  %64 = load ptr, ptr %63, align 8
  %65 = icmp eq ptr %62, %64
  br i1 %65, label %72, label %66

66:                                               ; preds = %61
  %67 = load ptr, ptr %6, align 8
  %68 = call noundef ptr @_ZN16ExpertPacketItem10parentItemEv(ptr noundef align 8 dereferenceable_or_null(136) %67)
  %69 = getelementptr inbounds nuw %class.ExpertInfoModel, ptr %12, i32 0, i32 3
  %70 = load ptr, ptr %69, align 8
  %71 = icmp eq ptr %68, %70
  br i1 %71, label %72, label %75

72:                                               ; preds = %66, %61
  %73 = load ptr, ptr %6, align 8
  %74 = call noundef i32 @_ZNK16ExpertPacketItem10childCountEv(ptr noundef align 8 dereferenceable_or_null(136) %73)
  store i32 %74, ptr %3, align 4
  store i32 1, ptr %7, align 4
  br label %77

75:                                               ; preds = %66
  br label %76

76:                                               ; preds = %75
  store i32 0, ptr %3, align 4
  store i32 1, ptr %7, align 4
  br label %77

77:                                               ; preds = %76, %72, %60, %16
  call void @llvm.lifetime.end.p0(i64 8, ptr %6) #10
  %78 = load i32, ptr %3, align 4
  ret i32 %78
}