; Function Attrs: mustprogress nofree norecurse nosync nounwind null_pointer_is_valid sspstrong willreturn memory(read, inaccessiblemem: none) uwtable
define noundef i32 @_ZNK15ExpertInfoModel8rowCountERK11QModelIndex(ptr noundef readonly align 8 captures(none) dereferenceable_or_null(48) %0, ptr noundef readonly align 8 captures(none) dereferenceable(24) %1) unnamed_addr #8 align 2 {
  %3 = getelementptr inbounds nuw i8, ptr %1, i64 4
  %4 = load i32, ptr %3, align 4
  %5 = icmp sgt i32 %4, 0
  br i1 %5, label %.loopexit, label %6

6:                                                ; preds = %2
  %7 = load i32, ptr %1, align 8
  %8 = icmp sgt i32 %7, -1
  %9 = icmp eq i32 %4, 0
  %or.cond = and i1 %9, %8
  %10 = getelementptr inbounds nuw i8, ptr %1, i64 16
  %11 = load ptr, ptr %10, align 8
  %12 = icmp ne ptr %11, null
  %or.cond24 = select i1 %or.cond, i1 %12, i1 false
  br i1 %or.cond24, label %15, label %_ZNK11QModelIndex7isValidEv.exit.thread

_ZNK11QModelIndex7isValidEv.exit.thread:          ; preds = %6
  %13 = getelementptr inbounds nuw i8, ptr %0, i64 32
  %14 = load ptr, ptr %13, align 8
  br label %19

15:                                               ; preds = %6
  %16 = getelementptr inbounds nuw i8, ptr %1, i64 8
  %17 = load i64, ptr %16, align 8
  %18 = inttoptr i64 %17 to ptr
  br label %19

19:                                               ; preds = %15, %_ZNK11QModelIndex7isValidEv.exit.thread
  %.019 = phi ptr [ %18, %15 ], [ %14, %_ZNK11QModelIndex7isValidEv.exit.thread ]
  %20 = getelementptr inbounds nuw i8, ptr %0, i64 24
  %21 = load i8, ptr %20, align 8, !range !11, !noundef !12
  %22 = trunc nuw i8 %21 to i1
  %23 = getelementptr inbounds nuw i8, ptr %0, i64 32
  %24 = load ptr, ptr %23, align 8
  %25 = icmp eq ptr %.019, %24
  br i1 %22, label %26, label %50

26:                                               ; preds = %19
  %27 = getelementptr inbounds nuw i8, ptr %.019, i64 112
  %28 = load i64, ptr %27, align 8
  %29 = trunc i64 %28 to i32
  br i1 %25, label %.preheader, label %.loopexit

.preheader:                                       ; preds = %26
  %30 = icmp sgt i32 %29, 0
  br i1 %30, label %.lr.ph, label %.loopexit

.lr.ph:                                           ; preds = %.preheader
  %31 = getelementptr inbounds nuw i8, ptr %.019, i64 104
  %wide.trip.count = and i64 %28, 2147483647
  br label %32

32:                                               ; preds = %.lr.ph, %_ZN16ExpertPacketItem5childEi.exit21
  %indvars.iv = phi i64 [ 0, %.lr.ph ], [ %indvars.iv.next, %_ZN16ExpertPacketItem5childEi.exit21 ]
  %.02025 = phi i32 [ 0, %.lr.ph ], [ %49, %_ZN16ExpertPacketItem5childEi.exit21 ]
  %33 = icmp ugt i64 %28, %indvars.iv
  br i1 %33, label %34, label %_ZN16ExpertPacketItem5childEi.exit

34:                                               ; preds = %32
  %35 = load ptr, ptr %31, align 8
  %36 = getelementptr ptr, ptr %35, i64 %indvars.iv
  %37 = load ptr, ptr %36, align 8
  br label %_ZN16ExpertPacketItem5childEi.exit

_ZN16ExpertPacketItem5childEi.exit:               ; preds = %32, %34
  %38 = phi ptr [ %37, %34 ], [ null, %32 ]
  %39 = getelementptr inbounds nuw i8, ptr %38, i64 112
  %40 = load i64, ptr %39, align 8
  %.not = icmp eq i64 %40, 0
  br i1 %.not, label %_ZN16ExpertPacketItem5childEi.exit21, label %41

41:                                               ; preds = %_ZN16ExpertPacketItem5childEi.exit
  %42 = getelementptr inbounds nuw i8, ptr %38, i64 104
  %43 = load ptr, ptr %42, align 8
  %44 = load ptr, ptr %43, align 8
  br label %_ZN16ExpertPacketItem5childEi.exit21

_ZN16ExpertPacketItem5childEi.exit21:             ; preds = %_ZN16ExpertPacketItem5childEi.exit, %41
  %45 = phi ptr [ %44, %41 ], [ null, %_ZN16ExpertPacketItem5childEi.exit ]
  %46 = getelementptr inbounds nuw i8, ptr %45, i64 112
  %47 = load i64, ptr %46, align 8
  %48 = trunc i64 %47 to i32
  %49 = add i32 %.02025, %48
  %indvars.iv.next = add nuw nsw i64 %indvars.iv, 1
  %exitcond.not = icmp eq i64 %indvars.iv.next, %wide.trip.count
  br i1 %exitcond.not, label %.loopexit, label %32, !llvm.loop !48

50:                                               ; preds = %19
  br i1 %25, label %55, label %51

51:                                               ; preds = %50
  %52 = getelementptr inbounds nuw i8, ptr %.019, i64 120
  %53 = load ptr, ptr %52, align 8
  %54 = icmp eq ptr %53, %24
  br i1 %54, label %55, label %.loopexit

55:                                               ; preds = %51, %50
  %56 = getelementptr inbounds nuw i8, ptr %.019, i64 112
  %57 = load i64, ptr %56, align 8
  %58 = trunc i64 %57 to i32
  br label %.loopexit

.loopexit:                                        ; preds = %_ZN16ExpertPacketItem5childEi.exit21, %26, %.preheader, %51, %2, %55
  %.018 = phi i32 [ %58, %55 ], [ 0, %2 ], [ 0, %51 ], [ 0, %.preheader ], [ %29, %26 ], [ %49, %_ZN16ExpertPacketItem5childEi.exit21 ]
  ret i32 %.018
}